target datalayout = "e-m:e-p270:32:32-p271:32:32-p272:64:64-i64:64-i128:128-f80:128-n8:16:32:64-S128"
target triple = "x86_64-pc-linux-gnu"

@subpel_filters = internal constant [7 x [6 x i8]] [[6 x i8] c"\00\06{\0C\01\00", [6 x i8] c"\02\0Bl$\08\01", [6 x i8] c"\00\09]2\06\00", [6 x i8] c"\03\10MM\10\03", [6 x i8] c"\00\062]\09\00", [6 x i8] c"\01\08$l\0B\02", [6 x i8] c"\00\01\0C{\06\00"], align 16
@ff_crop_tab = external hidden constant [2304 x i8], align 16

; Function Attrs: nounwind uwtable
define internal void @put_vp8_epel8_h4v6_c(ptr noundef %0, i64 noundef %1, ptr noundef %2, i64 noundef %3, i32 noundef %4, i32 noundef %5, i32 noundef %6) #1 {
  %8 = alloca ptr, align 8
  %9 = alloca i64, align 8
  %10 = alloca ptr, align 8
  %11 = alloca i64, align 8
  %12 = alloca i32, align 4
  %13 = alloca i32, align 4
  %14 = alloca i32, align 4
  %15 = alloca ptr, align 8
  %16 = alloca ptr, align 8
  %17 = alloca i32, align 4
  %18 = alloca i32, align 4
  %19 = alloca [168 x i8], align 16
  %20 = alloca ptr, align 8
  store ptr %0, ptr %8, align 8, !tbaa !10
  store i64 %1, ptr %9, align 8, !tbaa !12
  store ptr %2, ptr %10, align 8, !tbaa !10
  store i64 %3, ptr %11, align 8, !tbaa !12
  store i32 %4, ptr %12, align 4, !tbaa !14
  store i32 %5, ptr %13, align 4, !tbaa !14
  store i32 %6, ptr %14, align 4, !tbaa !14
  call void @llvm.lifetime.start.p0(i64 8, ptr %15) #6
  %21 = load i32, ptr %13, align 4, !tbaa !14
  %22 = sub nsw i32 %21, 1
  %23 = sext i32 %22 to i64
  %24 = getelementptr inbounds [7 x [6 x i8]], ptr @subpel_filters, i64 0, i64 %23
  %25 = getelementptr inbounds [6 x i8], ptr %24, i64 0, i64 0
  store ptr %25, ptr %15, align 8, !tbaa !10
  call void @llvm.lifetime.start.p0(i64 8, ptr %16) #6
  store ptr getelementptr inbounds (i8, ptr @ff_crop_tab, i64 1024), ptr %16, align 8, !tbaa !10
  call void @llvm.lifetime.start.p0(i64 4, ptr %17) #6
  call void @llvm.lifetime.start.p0(i64 4, ptr %18) #6
  call void @llvm.lifetime.start.p0(i64 168, ptr %19) #6
  call void @llvm.lifetime.start.p0(i64 8, ptr %20) #6
  %26 = getelementptr inbounds [168 x i8], ptr %19, i64 0, i64 0
  store ptr %26, ptr %20, align 8, !tbaa !10
  %27 = load i64, ptr %11, align 8, !tbaa !12
  %28 = mul nsw i64 2, %27
  %29 = load ptr, ptr %10, align 8, !tbaa !10
  %30 = sub i64 0, %28
  %31 = getelementptr inbounds i8, ptr %29, i64 %30
  store ptr %31, ptr %10, align 8, !tbaa !10
  store i32 0, ptr %18, align 4, !tbaa !14
  br label %32

32:                                               ; preds = %113, %7
  %33 = load i32, ptr %18, align 4, !tbaa !14
  %34 = load i32, ptr %12, align 4, !tbaa !14
  %35 = add nsw i32 %34, 6
  %36 = sub nsw i32 %35, 1
  %37 = icmp slt i32 %33, %36
  br i1 %37, label %38, label %116

38:                                               ; preds = %32
  store i32 0, ptr %17, align 4, !tbaa !14
  br label %39

39:                                               ; preds = %104, %38
  %40 = load i32, ptr %17, align 4, !tbaa !14
  %41 = icmp slt i32 %40, 8
  br i1 %41, label %42, label %107

42:                                               ; preds = %39
  %43 = load ptr, ptr %16, align 8, !tbaa !10
  %44 = load ptr, ptr %15, align 8, !tbaa !10
  %45 = getelementptr inbounds i8, ptr %44, i64 2
  %46 = load i8, ptr %45, align 1, !tbaa !18
  %47 = zext i8 %46 to i32
  %48 = load ptr, ptr %10, align 8, !tbaa !10
  %49 = load i32, ptr %17, align 4, !tbaa !14
  %50 = add nsw i32 %49, 0
  %51 = sext i32 %50 to i64
  %52 = getelementptr inbounds i8, ptr %48, i64 %51
  %53 = load i8, ptr %52, align 1, !tbaa !18
  %54 = zext i8 %53 to i32
  %55 = mul nsw i32 %47, %54
  %56 = load ptr, ptr %15, align 8, !tbaa !10
  %57 = getelementptr inbounds i8, ptr %56, i64 1
  %58 = load i8, ptr %57, align 1, !tbaa !18
  %59 = zext i8 %58 to i32
  %60 = load ptr, ptr %10, align 8, !tbaa !10
  %61 = load i32, ptr %17, align 4, !tbaa !14
  %62 = sub nsw i32 %61, 1
  %63 = sext i32 %62 to i64
  %64 = getelementptr inbounds i8, ptr %60, i64 %63
  %65 = load i8, ptr %64, align 1, !tbaa !18
  %66 = zext i8 %65 to i32
  %67 = mul nsw i32 %59, %66
  %68 = sub nsw i32 %55, %67
  %69 = load ptr, ptr %15, align 8, !tbaa !10
  %70 = getelementptr inbounds i8, ptr %69, i64 3
  %71 = load i8, ptr %70, align 1, !tbaa !18
  %72 = zext i8 %71 to i32
  %73 = load ptr, ptr %10, align 8, !tbaa !10
  %74 = load i32, ptr %17, align 4, !tbaa !14
  %75 = add nsw i32 %74, 1
  %76 = sext i32 %75 to i64
  %77 = getelementptr inbounds i8, ptr %73, i64 %76
  %78 = load i8, ptr %77, align 1, !tbaa !18
  %79 = zext i8 %78 to i32
  %80 = mul nsw i32 %72, %79
  %81 = add nsw i32 %68, %80
  %82 = load ptr, ptr %15, align 8, !tbaa !10
  %83 = getelementptr inbounds i8, ptr %82, i64 4
  %84 = load i8, ptr %83, align 1, !tbaa !18
  %85 = zext i8 %84 to i32
  %86 = load ptr, ptr %10, align 8, !tbaa !10
  %87 = load i32, ptr %17, align 4, !tbaa !14
  %88 = add nsw i32 %87, 2
  %89 = sext i32 %88 to i64
  %90 = getelementptr inbounds i8, ptr %86, i64 %89
  %91 = load i8, ptr %90, align 1, !tbaa !18
  %92 = zext i8 %91 to i32
  %93 = mul nsw i32 %85, %92
  %94 = sub nsw i32 %81, %93
  %95 = add nsw i32 %94, 64
  %96 = ashr i32 %95, 7
  %97 = sext i32 %96 to i64
  %98 = getelementptr inbounds i8, ptr %43, i64 %97
  %99 = load i8, ptr %98, align 1, !tbaa !18
  %100 = load ptr, ptr %20, align 8, !tbaa !10
  %101 = load i32, ptr %17, align 4, !tbaa !14
  %102 = sext i32 %101 to i64
  %103 = getelementptr inbounds i8, ptr %100, i64 %102
  store i8 %99, ptr %103, align 1, !tbaa !18
  br label %104

104:                                              ; preds = %42
  %105 = load i32, ptr %17, align 4, !tbaa !14
  %106 = add nsw i32 %105, 1
  store i32 %106, ptr %17, align 4, !tbaa !14
  br label %39, !llvm.loop !60

107:                                              ; preds = %39
  %108 = load ptr, ptr %20, align 8, !tbaa !10
  %109 = getelementptr inbounds i8, ptr %108, i64 8
  store ptr %109, ptr %20, align 8, !tbaa !10
  %110 = load i64, ptr %11, align 8, !tbaa !12
  %111 = load ptr, ptr %10, align 8, !tbaa !10
  %112 = getelementptr inbounds i8, ptr %111, i64 %110
  store ptr %112, ptr %10, align 8, !tbaa !10
  br label %113

113:                                              ; preds = %107
  %114 = load i32, ptr %18, align 4, !tbaa !14
  %115 = add nsw i32 %114, 1
  store i32 %115, ptr %18, align 4, !tbaa !14
  br label %32, !llvm.loop !61

116:                                              ; preds = %32
  %117 = getelementptr inbounds [168 x i8], ptr %19, i64 0, i64 0
  %118 = getelementptr inbounds i8, ptr %117, i64 16
  store ptr %118, ptr %20, align 8, !tbaa !10
  %119 = load i32, ptr %14, align 4, !tbaa !14
  %120 = sub nsw i32 %119, 1
  %121 = sext i32 %120 to i64
  %122 = getelementptr inbounds [7 x [6 x i8]], ptr @subpel_filters, i64 0, i64 %121
  %123 = getelementptr inbounds [6 x i8], ptr %122, i64 0, i64 0
  store ptr %123, ptr %15, align 8, !tbaa !10
  store i32 0, ptr %18, align 4, !tbaa !14
  br label %124

124:                                              ; preds = %229, %116
  %125 = load i32, ptr %18, align 4, !tbaa !14
  %126 = load i32, ptr %12, align 4, !tbaa !14
  %127 = icmp slt i32 %125, %126
  br i1 %127, label %128, label %232

128:                                              ; preds = %124
  store i32 0, ptr %17, align 4, !tbaa !14
  br label %129

129:                                              ; preds = %220, %128
  %130 = load i32, ptr %17, align 4, !tbaa !14
  %131 = icmp slt i32 %130, 8
  br i1 %131, label %132, label %223

132:                                              ; preds = %129
  %133 = load ptr, ptr %16, align 8, !tbaa !10
  %134 = load ptr, ptr %15, align 8, !tbaa !10
  %135 = getelementptr inbounds i8, ptr %134, i64 2
  %136 = load i8, ptr %135, align 1, !tbaa !18
  %137 = zext i8 %136 to i32
  %138 = load ptr, ptr %20, align 8, !tbaa !10
  %139 = load i32, ptr %17, align 4, !tbaa !14
  %140 = add nsw i32 %139, 0
  %141 = sext i32 %140 to i64
  %142 = getelementptr inbounds i8, ptr %138, i64 %141
  %143 = load i8, ptr %142, align 1, !tbaa !18
  %144 = zext i8 %143 to i32
  %145 = mul nsw i32 %137, %144
  %146 = load ptr, ptr %15, align 8, !tbaa !10
  %147 = getelementptr inbounds i8, ptr %146, i64 1
  %148 = load i8, ptr %147, align 1, !tbaa !18
  %149 = zext i8 %148 to i32
  %150 = load ptr, ptr %20, align 8, !tbaa !10
  %151 = load i32, ptr %17, align 4, !tbaa !14
  %152 = sub nsw i32 %151, 8
  %153 = sext i32 %152 to i64
  %154 = getelementptr inbounds i8, ptr %150, i64 %153
  %155 = load i8, ptr %154, align 1, !tbaa !18
  %156 = zext i8 %155 to i32
  %157 = mul nsw i32 %149, %156
  %158 = sub nsw i32 %145, %157
  %159 = load ptr, ptr %15, align 8, !tbaa !10
  %160 = getelementptr inbounds i8, ptr %159, i64 0
  %161 = load i8, ptr %160, align 1, !tbaa !18
  %162 = zext i8 %161 to i32
  %163 = load ptr, ptr %20, align 8, !tbaa !10
  %164 = load i32, ptr %17, align 4, !tbaa !14
  %165 = sub nsw i32 %164, 16
  %166 = sext i32 %165 to i64
  %167 = getelementptr inbounds i8, ptr %163, i64 %166
  %168 = load i8, ptr %167, align 1, !tbaa !18
  %169 = zext i8 %168 to i32
  %170 = mul nsw i32 %162, %169
  %171 = add nsw i32 %158, %170
  %172 = load ptr, ptr %15, align 8, !tbaa !10
  %173 = getelementptr inbounds i8, ptr %172, i64 3
  %174 = load i8, ptr %173, align 1, !tbaa !18
  %175 = zext i8 %174 to i32
  %176 = load ptr, ptr %20, align 8, !tbaa !10
  %177 = load i32, ptr %17, align 4, !tbaa !14
  %178 = add nsw i32 %177, 8
  %179 = sext i32 %178 to i64
  %180 = getelementptr inbounds i8, ptr %176, i64 %179
  %181 = load i8, ptr %180, align 1, !tbaa !18
  %182 = zext i8 %181 to i32
  %183 = mul nsw i32 %175, %182
  %184 = add nsw i32 %171, %183
  %185 = load ptr, ptr %15, align 8, !tbaa !10
  %186 = getelementptr inbounds i8, ptr %185, i64 4
  %187 = load i8, ptr %186, align 1, !tbaa !18
  %188 = zext i8 %187 to i32
  %189 = load ptr, ptr %20, align 8, !tbaa !10
  %190 = load i32, ptr %17, align 4, !tbaa !14
  %191 = add nsw i32 %190, 16
  %192 = sext i32 %191 to i64
  %193 = getelementptr inbounds i8, ptr %189, i64 %192
  %194 = load i8, ptr %193, align 1, !tbaa !18
  %195 = zext i8 %194 to i32
  %196 = mul nsw i32 %188, %195
  %197 = sub nsw i32 %184, %196
  %198 = load ptr, ptr %15, align 8, !tbaa !10
  %199 = getelementptr inbounds i8, ptr %198, i64 5
  %200 = load i8, ptr %199, align 1, !tbaa !18
  %201 = zext i8 %200 to i32
  %202 = load ptr, ptr %20, align 8, !tbaa !10
  %203 = load i32, ptr %17, align 4, !tbaa !14
  %204 = add nsw i32 %203, 24
  %205 = sext i32 %204 to i64
  %206 = getelementptr inbounds i8, ptr %202, i64 %205
  %207 = load i8, ptr %206, align 1, !tbaa !18
  %208 = zext i8 %207 to i32
  %209 = mul nsw i32 %201, %208
  %210 = add nsw i32 %197, %209
  %211 = add nsw i32 %210, 64
  %212 = ashr i32 %211, 7
  %213 = sext i32 %212 to i64
  %214 = getelementptr inbounds i8, ptr %133, i64 %213
  %215 = load i8, ptr %214, align 1, !tbaa !18
  %216 = load ptr, ptr %8, align 8, !tbaa !10
  %217 = load i32, ptr %17, align 4, !tbaa !14
  %218 = sext i32 %217 to i64
  %219 = getelementptr inbounds i8, ptr %216, i64 %218
  store i8 %215, ptr %219, align 1, !tbaa !18
  br label %220

220:                                              ; preds = %132
  %221 = load i32, ptr %17, align 4, !tbaa !14
  %222 = add nsw i32 %221, 1
  store i32 %222, ptr %17, align 4, !tbaa !14
  br label %129, !llvm.loop !62

223:                                              ; preds = %129
  %224 = load i64, ptr %9, align 8, !tbaa !12
  %225 = load ptr, ptr %8, align 8, !tbaa !10
  %226 = getelementptr inbounds i8, ptr %225, i64 %224
  store ptr %226, ptr %8, align 8, !tbaa !10
  %227 = load ptr, ptr %20, align 8, !tbaa !10
  %228 = getelementptr inbounds i8, ptr %227, i64 8
  store ptr %228, ptr %20, align 8, !tbaa !10
  br label %229

229:                                              ; preds = %223
  %230 = load i32, ptr %18, align 4, !tbaa !14
  %231 = add nsw i32 %230, 1
  store i32 %231, ptr %18, align 4, !tbaa !14
  br label %124, !llvm.loop !63

232:                                              ; preds = %124
  call void @llvm.lifetime.end.p0(i64 8, ptr %20) #6
  call void @llvm.lifetime.end.p0(i64 168, ptr %19) #6
  call void @llvm.lifetime.end.p0(i64 4, ptr %18) #6
  call void @llvm.lifetime.end.p0(i64 4, ptr %17) #6
  call void @llvm.lifetime.end.p0(i64 8, ptr %16) #6
  call void @llvm.lifetime.end.p0(i64 8, ptr %15) #6
  ret void
}